target datalayout = "e-m:e-p270:32:32-p271:32:32-p272:64:64-i64:64-i128:128-f80:128-n8:16:32:64-S128"
target triple = "x86_64-pc-linux-gnu"

; Function Attrs: inlinehint mustprogress nounwind uwtable
define internal noundef signext i8 @_ZL9U_FAILURE10UErrorCode(i32 noundef %0) #2 {
  %2 = alloca i32, align 4
  store i32 %0, ptr %2, align 4, !tbaa !15
  %3 = load i32, ptr %2, align 4, !tbaa !15
  %4 = icmp sgt i32 %3, 0
  %5 = zext i1 %4 to i8
  ret i8 %5
}

; Function Attrs: mustprogress uwtable
define noundef ptr @_ZN6icu_7712NumberFormat20createSharedInstanceERKNS_6LocaleE18UNumberFormatStyleR10UErrorCode(ptr noundef nonnull align 8 dereferenceable(217) %0, i32 noundef %1, ptr noundef nonnull align 4 dereferenceable(4) %2) #1 align 2 {
  %4 = alloca ptr, align 8
  %5 = alloca ptr, align 8
  %6 = alloca i32, align 4
  %7 = alloca ptr, align 8
  %8 = alloca ptr, align 8
  store ptr %0, ptr %5, align 8, !tbaa !27
  store i32 %1, ptr %6, align 4, !tbaa !118
  store ptr %2, ptr %7, align 8, !tbaa !22
  %9 = load ptr, ptr %7, align 8, !tbaa !22
  %10 = load i32, ptr %9, align 4, !tbaa !15
  %11 = call noundef signext i8 @_ZL9U_FAILURE10UErrorCode(i32 noundef %10)
  %12 = icmp ne i8 %11, 0
  br i1 %12, label %13, label %14

13:                                               ; preds = %3
  store ptr null, ptr %4, align 8
  br label %23

14:                                               ; preds = %3
  %15 = load i32, ptr %6, align 4, !tbaa !118
  %16 = icmp ne i32 %15, 1
  br i1 %16, label %17, label %19

17:                                               ; preds = %14
  %18 = load ptr, ptr %7, align 8, !tbaa !22
  store i32 16, ptr %18, align 4, !tbaa !15
  store ptr null, ptr %4, align 8
  br label %23

19:                                               ; preds = %14
  call void @llvm.lifetime.start.p0(i64 8, ptr %8) #15
  store ptr null, ptr %8, align 8, !tbaa !56
  %20 = load ptr, ptr %5, align 8, !tbaa !27
  %21 = load ptr, ptr %7, align 8, !tbaa !22
  call void @_ZN6icu_7712UnifiedCache11getByLocaleINS_18SharedNumberFormatEEEvRKNS_6LocaleERPKT_R10UErrorCode(ptr noundef nonnull align 8 dereferenceable(217) %20, ptr noundef nonnull align 8 dereferenceable(8) %8, ptr noundef nonnull align 4 dereferenceable(4) %21)
  %22 = load ptr, ptr %8, align 8, !tbaa !56
  store ptr %22, ptr %4, align 8
  call void @llvm.lifetime.end.p0(i64 8, ptr %8) #15
  br label %23

23:                                               ; preds = %19, %17, %13
  %24 = load ptr, ptr %4, align 8
  ret ptr %24
}