; Function Attrs: mustprogress uwtable
define noundef ptr @_ZN6icu_7712NumberFormat20createSharedInstanceERKNS_6LocaleE18UNumberFormatStyleR10UErrorCode(ptr noundef nonnull align 8 dereferenceable(217) %0, i32 noundef %1, ptr noundef nonnull align 4 dereferenceable(4) %2) local_unnamed_addr #1 align 2 {
  %4 = alloca ptr, align 8
  %5 = load i32, ptr %2, align 4, !tbaa !13
  %6 = icmp slt i32 %5, 1
  br i1 %6, label %7, label %11

7:                                                ; preds = %3
  %.not5 = icmp eq i32 %1, 1
  br i1 %.not5, label %9, label %8

8:                                                ; preds = %7
  store i32 16, ptr %2, align 4, !tbaa !13
  br label %11

9:                                                ; preds = %7
  call void @llvm.lifetime.start.p0(i64 8, ptr nonnull %4) #22
  store ptr null, ptr %4, align 8, !tbaa !64
  call void @_ZN6icu_7712UnifiedCache11getByLocaleINS_18SharedNumberFormatEEEvRKNS_6LocaleERPKT_R10UErrorCode(ptr noundef nonnull align 8 dereferenceable(217) %0, ptr noundef nonnull align 8 dereferenceable(8) %4, ptr noundef nonnull align 4 dereferenceable(4) %2)
  %10 = load ptr, ptr %4, align 8, !tbaa !64
  call void @llvm.lifetime.end.p0(i64 8, ptr nonnull %4) #22
  br label %11

11:                                               ; preds = %3, %9, %8
  %.0 = phi ptr [ null, %8 ], [ %10, %9 ], [ null, %3 ]
  ret ptr %.0
}